---
triple:          'arm64-apple-darwin'
binary-path:     '/Users/cheems/Workbench/DataStructureCourse/List/main'
relocations:
  - { offsetInCU: 0x2F22, offset: 0x2F22, size: 0x8, addend: 0x0, symName: __ZNSt3__124__put_character_sequenceB7v160006IcNS_11char_traitsIcEEEERNS_13basic_ostreamIT_T0_EES7_PKS4_m, symObjAddr: 0xED0, symBinAddr: 0x1000031DC, symSize: 0x1EC }
  - { offsetInCU: 0x4872, offset: 0x4872, size: 0x8, addend: 0x0, symName: __ZNSt3__1lsB7v160006INS_11char_traitsIcEEEERNS_13basic_ostreamIcT_EES6_PKc, symObjAddr: 0x90C, symBinAddr: 0x100002C18, symSize: 0x48 }
  - { offsetInCU: 0x48B8, offset: 0x48B8, size: 0x8, addend: 0x0, symName: __ZNSt3__14endlB7v160006IcNS_11char_traitsIcEEEERNS_13basic_ostreamIT_T0_EES7_, symObjAddr: 0x980, symBinAddr: 0x100002C8C, symSize: 0x58 }
  - { offsetInCU: 0x48F8, offset: 0x48F8, size: 0x8, addend: 0x0, symName: __ZNSt3__116__pad_and_outputB7v160006IcNS_11char_traitsIcEEEENS_19ostreambuf_iteratorIT_T0_EES6_PKS4_S8_S8_RNS_8ios_baseES4_, symObjAddr: 0x110C, symBinAddr: 0x100003418, symSize: 0x240 }
  - { offsetInCU: 0x49C7, offset: 0x49C7, size: 0x8, addend: 0x0, symName: __ZNSt3__119__debug_db_insert_cB7v160006INS_12basic_stringIcNS_11char_traitsIcEENS_9allocatorIcEEEEEEvPT_, symObjAddr: 0x15CC, symBinAddr: 0x1000038D8, symSize: 0x10 }
  - { offsetInCU: 0x49F8, offset: 0x49F8, size: 0x8, addend: 0x0, symName: __ZNSt3__112__to_addressB7v160006IKcEEPT_S3_, symObjAddr: 0x1698, symBinAddr: 0x1000039A4, symSize: 0x14 }
  - { offsetInCU: 0x4A60, offset: 0x4A60, size: 0x8, addend: 0x0, symName: __ZNSt3__19use_facetB7v160006INS_5ctypeIcEEEERKT_RKNS_6localeE, symObjAddr: 0x1918, symBinAddr: 0x100003C24, symSize: 0x2C }
  - { offsetInCU: 0x4F2F, offset: 0x4F2F, size: 0x8, addend: 0x0, symName: __ZNSt3__118__constexpr_strlenB7v160006EPKc, symObjAddr: 0x19B0, symBinAddr: 0x100003CBC, symSize: 0x24 }
  - { offsetInCU: 0x7458, offset: 0x7458, size: 0x8, addend: 0x0, symName: __ZN17SQListBasicMethod9incrementERNS_6SqListE, symObjAddr: 0x0, symBinAddr: 0x10000230C, symSize: 0x104 }
  - { offsetInCU: 0x74AA, offset: 0x74AA, size: 0x8, addend: 0x0, symName: __ZN17SQListBasicMethod11InitList_SqERNS_6SqListE, symObjAddr: 0x104, symBinAddr: 0x100002410, symSize: 0x4C }
  - { offsetInCU: 0x74D2, offset: 0x74D2, size: 0x8, addend: 0x0, symName: __ZN17SQListBasicMethod14DestroyList_SqERNS_6SqListE, symObjAddr: 0x150, symBinAddr: 0x10000245C, symSize: 0x5C }
  - { offsetInCU: 0x74FA, offset: 0x74FA, size: 0x8, addend: 0x0, symName: __ZN17SQListBasicMethod12ClearList_SqERNS_6SqListE, symObjAddr: 0x1AC, symBinAddr: 0x1000024B8, symSize: 0x18 }
  - { offsetInCU: 0x7522, offset: 0x7522, size: 0x8, addend: 0x0, symName: __ZN17SQListBasicMethod12ListEmpty_SqENS_6SqListE, symObjAddr: 0x1C4, symBinAddr: 0x1000024D0, symSize: 0x30 }
  - { offsetInCU: 0x754F, offset: 0x754F, size: 0x8, addend: 0x0, symName: __ZN17SQListBasicMethod13ListLength_SqENS_6SqListE, symObjAddr: 0x1F4, symBinAddr: 0x100002500, symSize: 0x18 }
  - { offsetInCU: 0x757C, offset: 0x757C, size: 0x8, addend: 0x0, symName: __ZN17SQListBasicMethod10GetElem_SqENS_6SqListEiRi, symObjAddr: 0x20C, symBinAddr: 0x100002518, symSize: 0xC0 }
  - { offsetInCU: 0x75C5, offset: 0x75C5, size: 0x8, addend: 0x0, symName: __ZN17SQListBasicMethod13LocateElem_SqENS_6SqListEi, symObjAddr: 0x2CC, symBinAddr: 0x1000025D8, symSize: 0x90 }
  - { offsetInCU: 0x761C, offset: 0x761C, size: 0x8, addend: 0x0, symName: __ZN17SQListBasicMethod12PriorElem_SqENS_6SqListEiRi, symObjAddr: 0x35C, symBinAddr: 0x100002668, symSize: 0x140 }
  - { offsetInCU: 0x7681, offset: 0x7681, size: 0x8, addend: 0x0, symName: __ZN17SQListBasicMethod11NextElem_SqENS_6SqListEiRi, symObjAddr: 0x49C, symBinAddr: 0x1000027A8, symSize: 0x144 }
  - { offsetInCU: 0x76E6, offset: 0x76E6, size: 0x8, addend: 0x0, symName: __ZN17SQListBasicMethod13ListInsert_SqERNS_6SqListEii, symObjAddr: 0x5E0, symBinAddr: 0x1000028EC, symSize: 0x150 }
  - { offsetInCU: 0x774A, offset: 0x774A, size: 0x8, addend: 0x0, symName: __ZN17SQListBasicMethod13ListDelete_SqERNS_6SqListEiRi, symObjAddr: 0x730, symBinAddr: 0x100002A3C, symSize: 0x138 }
  - { offsetInCU: 0x77AE, offset: 0x77AE, size: 0x8, addend: 0x0, symName: __ZN17SQListBasicMethod15ListTraverse_SqENS_6SqListE, symObjAddr: 0x868, symBinAddr: 0x100002B74, symSize: 0xA4 }
  - { offsetInCU: 0x7852, offset: 0x7852, size: 0x8, addend: 0x0, symName: __ZNSt3__113basic_ostreamIcNS_11char_traitsIcEEElsB7v160006EPFRS3_S4_E, symObjAddr: 0x954, symBinAddr: 0x100002C60, symSize: 0x2C }
  - { offsetInCU: 0x7889, offset: 0x7889, size: 0x8, addend: 0x0, symName: __ZN18SQListDeriveMethod11CopyList_SqEN17SQListBasicMethod6SqListE, symObjAddr: 0x9D8, symBinAddr: 0x100002CE4, symSize: 0xA0 }
  - { offsetInCU: 0x78EF, offset: 0x78EF, size: 0x8, addend: 0x0, symName: __ZN18SQListDeriveMethod13PurifyList_SqERN17SQListBasicMethod6SqListE, symObjAddr: 0xA78, symBinAddr: 0x100002D84, symSize: 0xF0 }
  - { offsetInCU: 0x795D, offset: 0x795D, size: 0x8, addend: 0x0, symName: __ZN18SQListDeriveMethod14ConnectList_SqEN17SQListBasicMethod6SqListES1_RS1_, symObjAddr: 0xB68, symBinAddr: 0x100002E74, symSize: 0xD8 }
  - { offsetInCU: 0x79CD, offset: 0x79CD, size: 0x8, addend: 0x0, symName: __ZN18SQListDeriveMethod18PushItemByArray_SqERN17SQListBasicMethod6SqListEiPi, symObjAddr: 0xC40, symBinAddr: 0x100002F4C, symSize: 0x74 }
  - { offsetInCU: 0x7A2D, offset: 0x7A2D, size: 0x8, addend: 0x0, symName: __ZN18SQListDeriveMethod8Union_SqEN17SQListBasicMethod6SqListES1_RS1_, symObjAddr: 0xCB4, symBinAddr: 0x100002FC0, symSize: 0x78 }
  - { offsetInCU: 0x7A77, offset: 0x7A77, size: 0x8, addend: 0x0, symName: __ZN18SQListDeriveMethod15Intersection_SqEN17SQListBasicMethod6SqListES1_RS1_, symObjAddr: 0xD2C, symBinAddr: 0x100003038, symSize: 0x1C }
  - { offsetInCU: 0x7AC1, offset: 0x7AC1, size: 0x8, addend: 0x0, symName: __ZN18SQListDeriveMethod13Difference_SqEN17SQListBasicMethod6SqListES1_RS1_, symObjAddr: 0xD48, symBinAddr: 0x100003054, symSize: 0x1C }
  - { offsetInCU: 0x7B0C, offset: 0x7B0C, size: 0x8, addend: 0x0, symName: _main, symObjAddr: 0xD64, symBinAddr: 0x100003070, symSize: 0x16C }
  - { offsetInCU: 0x7B8C, offset: 0x7B8C, size: 0x8, addend: 0x0, symName: __ZNSt3__111char_traitsIcE6lengthEPKc, symObjAddr: 0x10BC, symBinAddr: 0x1000033C8, symSize: 0x34 }
  - { offsetInCU: 0x7BCC, offset: 0x7BCC, size: 0x8, addend: 0x0, symName: __ZNKSt3__113basic_ostreamIcNS_11char_traitsIcEEE6sentrycvbB7v160006Ev, symObjAddr: 0x10F0, symBinAddr: 0x1000033FC, symSize: 0x1C }
  - { offsetInCU: 0x7BF0, offset: 0x7BF0, size: 0x8, addend: 0x0, symName: __ZNSt3__119ostreambuf_iteratorIcNS_11char_traitsIcEEEC1B7v160006ERNS_13basic_ostreamIcS2_EE, symObjAddr: 0x134C, symBinAddr: 0x100003658, symSize: 0x34 }
  - { offsetInCU: 0x7C26, offset: 0x7C26, size: 0x8, addend: 0x0, symName: __ZNKSt3__18ios_base5flagsB7v160006Ev, symObjAddr: 0x1380, symBinAddr: 0x10000368C, symSize: 0x18 }
  - { offsetInCU: 0x7C4C, offset: 0x7C4C, size: 0x8, addend: 0x0, symName: __ZNKSt3__19basic_iosIcNS_11char_traitsIcEEE4fillB7v160006Ev, symObjAddr: 0x1398, symBinAddr: 0x1000036A4, symSize: 0x64 }
  - { offsetInCU: 0x7C72, offset: 0x7C72, size: 0x8, addend: 0x0, symName: __ZNKSt3__119ostreambuf_iteratorIcNS_11char_traitsIcEEE6failedB7v160006Ev, symObjAddr: 0x13FC, symBinAddr: 0x100003708, symSize: 0x24 }
  - { offsetInCU: 0x7C96, offset: 0x7C96, size: 0x8, addend: 0x0, symName: __ZNSt3__19basic_iosIcNS_11char_traitsIcEEE8setstateB7v160006Ej, symObjAddr: 0x1420, symBinAddr: 0x10000372C, symSize: 0x2C }
  - { offsetInCU: 0x7CC9, offset: 0x7CC9, size: 0x8, addend: 0x0, symName: __ZNKSt3__18ios_base5widthB7v160006Ev, symObjAddr: 0x1458, symBinAddr: 0x100003764, symSize: 0x18 }
  - { offsetInCU: 0x7CEF, offset: 0x7CEF, size: 0x8, addend: 0x0, symName: __ZNSt3__115basic_streambufIcNS_11char_traitsIcEEE5sputnB7v160006EPKcl, symObjAddr: 0x1470, symBinAddr: 0x10000377C, symSize: 0x3C }
  - { offsetInCU: 0x7D2F, offset: 0x7D2F, size: 0x8, addend: 0x0, symName: __ZNSt3__112basic_stringIcNS_11char_traitsIcEENS_9allocatorIcEEEC1B7v160006Emc, symObjAddr: 0x14AC, symBinAddr: 0x1000037B8, symSize: 0x3C }
  - { offsetInCU: 0x7D75, offset: 0x7D75, size: 0x8, addend: 0x0, symName: __ZNKSt3__112basic_stringIcNS_11char_traitsIcEENS_9allocatorIcEEE4dataB7v160006Ev, symObjAddr: 0x14E8, symBinAddr: 0x1000037F4, symSize: 0x28 }
  - { offsetInCU: 0x7D99, offset: 0x7D99, size: 0x8, addend: 0x0, symName: __ZNSt3__18ios_base5widthB7v160006El, symObjAddr: 0x1510, symBinAddr: 0x10000381C, symSize: 0x2C }
  - { offsetInCU: 0x7DDD, offset: 0x7DDD, size: 0x8, addend: 0x0, symName: __ZNSt3__112basic_stringIcNS_11char_traitsIcEENS_9allocatorIcEEEC2B7v160006Emc, symObjAddr: 0x153C, symBinAddr: 0x100003848, symSize: 0x54 }
  - { offsetInCU: 0x7E28, offset: 0x7E28, size: 0x8, addend: 0x0, symName: __ZNSt3__117__compressed_pairINS_12basic_stringIcNS_11char_traitsIcEENS_9allocatorIcEEE5__repES5_EC1B7v160006INS_18__default_init_tagESA_EEOT_OT0_, symObjAddr: 0x1590, symBinAddr: 0x10000389C, symSize: 0x3C }
  - { offsetInCU: 0x7E7E, offset: 0x7E7E, size: 0x8, addend: 0x0, symName: __ZNSt3__117__compressed_pairINS_12basic_stringIcNS_11char_traitsIcEENS_9allocatorIcEEE5__repES5_EC2B7v160006INS_18__default_init_tagESA_EEOT_OT0_, symObjAddr: 0x15DC, symBinAddr: 0x1000038E8, symSize: 0x3C }
  - { offsetInCU: 0x7ED4, offset: 0x7ED4, size: 0x8, addend: 0x0, symName: __ZNSt3__122__compressed_pair_elemINS_12basic_stringIcNS_11char_traitsIcEENS_9allocatorIcEEE5__repELi0ELb0EEC2B7v160006ENS_18__default_init_tagE, symObjAddr: 0x1618, symBinAddr: 0x100003924, symSize: 0x14 }
  - { offsetInCU: 0x7F06, offset: 0x7F06, size: 0x8, addend: 0x0, symName: __ZNSt3__122__compressed_pair_elemINS_9allocatorIcEELi1ELb1EEC2B7v160006ENS_18__default_init_tagE, symObjAddr: 0x162C, symBinAddr: 0x100003938, symSize: 0x2C }
  - { offsetInCU: 0x7F38, offset: 0x7F38, size: 0x8, addend: 0x0, symName: __ZNSt3__19allocatorIcEC2B7v160006Ev, symObjAddr: 0x1658, symBinAddr: 0x100003964, symSize: 0x2C }
  - { offsetInCU: 0x7F60, offset: 0x7F60, size: 0x8, addend: 0x0, symName: __ZNSt3__116__non_trivial_ifILb1ENS_9allocatorIcEEEC2B7v160006Ev, symObjAddr: 0x1684, symBinAddr: 0x100003990, symSize: 0x14 }
  - { offsetInCU: 0x7F88, offset: 0x7F88, size: 0x8, addend: 0x0, symName: __ZNKSt3__112basic_stringIcNS_11char_traitsIcEENS_9allocatorIcEEE13__get_pointerB7v160006Ev, symObjAddr: 0x16AC, symBinAddr: 0x1000039B8, symSize: 0x54 }
  - { offsetInCU: 0x7FAC, offset: 0x7FAC, size: 0x8, addend: 0x0, symName: __ZNKSt3__112basic_stringIcNS_11char_traitsIcEENS_9allocatorIcEEE9__is_longB7v160006Ev, symObjAddr: 0x1700, symBinAddr: 0x100003A0C, symSize: 0x38 }
  - { offsetInCU: 0x7FD0, offset: 0x7FD0, size: 0x8, addend: 0x0, symName: __ZNKSt3__112basic_stringIcNS_11char_traitsIcEENS_9allocatorIcEEE18__get_long_pointerB7v160006Ev, symObjAddr: 0x1738, symBinAddr: 0x100003A44, symSize: 0x28 }
  - { offsetInCU: 0x7FF4, offset: 0x7FF4, size: 0x8, addend: 0x0, symName: __ZNKSt3__112basic_stringIcNS_11char_traitsIcEENS_9allocatorIcEEE19__get_short_pointerB7v160006Ev, symObjAddr: 0x1760, symBinAddr: 0x100003A6C, symSize: 0x28 }
  - { offsetInCU: 0x8018, offset: 0x8018, size: 0x8, addend: 0x0, symName: __ZNKSt3__117__compressed_pairINS_12basic_stringIcNS_11char_traitsIcEENS_9allocatorIcEEE5__repES5_E5firstB7v160006Ev, symObjAddr: 0x1788, symBinAddr: 0x100003A94, symSize: 0x24 }
  - { offsetInCU: 0x803C, offset: 0x803C, size: 0x8, addend: 0x0, symName: __ZNKSt3__122__compressed_pair_elemINS_12basic_stringIcNS_11char_traitsIcEENS_9allocatorIcEEE5__repELi0ELb0EE5__getB7v160006Ev, symObjAddr: 0x17AC, symBinAddr: 0x100003AB8, symSize: 0x14 }
  - { offsetInCU: 0x8061, offset: 0x8061, size: 0x8, addend: 0x0, symName: __ZNSt3__114pointer_traitsIPKcE10pointer_toB7v160006ERS1_, symObjAddr: 0x17C0, symBinAddr: 0x100003ACC, symSize: 0x14 }
  - { offsetInCU: 0x8083, offset: 0x8083, size: 0x8, addend: 0x0, symName: __ZNSt3__119ostreambuf_iteratorIcNS_11char_traitsIcEEEC2B7v160006ERNS_13basic_ostreamIcS2_EE, symObjAddr: 0x17D4, symBinAddr: 0x100003AE0, symSize: 0x54 }
  - { offsetInCU: 0x80B9, offset: 0x80B9, size: 0x8, addend: 0x0, symName: __ZNKSt3__19basic_iosIcNS_11char_traitsIcEEE5rdbufB7v160006Ev, symObjAddr: 0x1828, symBinAddr: 0x100003B34, symSize: 0x24 }
  - { offsetInCU: 0x80DF, offset: 0x80DF, size: 0x8, addend: 0x0, symName: __ZNKSt3__18ios_base5rdbufB7v160006Ev, symObjAddr: 0x184C, symBinAddr: 0x100003B58, symSize: 0x18 }
  - { offsetInCU: 0x8104, offset: 0x8104, size: 0x8, addend: 0x0, symName: __ZNSt3__111char_traitsIcE11eq_int_typeEii, symObjAddr: 0x1864, symBinAddr: 0x100003B70, symSize: 0x28 }
  - { offsetInCU: 0x8135, offset: 0x8135, size: 0x8, addend: 0x0, symName: __ZNSt3__111char_traitsIcE3eofEv, symObjAddr: 0x188C, symBinAddr: 0x100003B98, symSize: 0x8 }
  - { offsetInCU: 0x8148, offset: 0x8148, size: 0x8, addend: 0x0, symName: __ZNKSt3__19basic_iosIcNS_11char_traitsIcEEE5widenB7v160006Ec, symObjAddr: 0x1894, symBinAddr: 0x100003BA0, symSize: 0x84 }
  - { offsetInCU: 0x81B4, offset: 0x81B4, size: 0x8, addend: 0x0, symName: __ZNKSt3__15ctypeIcE5widenB7v160006Ec, symObjAddr: 0x1944, symBinAddr: 0x100003C50, symSize: 0x38 }
  - { offsetInCU: 0x81E7, offset: 0x81E7, size: 0x8, addend: 0x0, symName: __ZNSt3__18ios_base8setstateB7v160006Ej, symObjAddr: 0x197C, symBinAddr: 0x100003C88, symSize: 0x34 }
...
